; Function Attrs: mustprogress uwtable
define internal void @_ZZN7rocksdb20WriteUnpreparedTxnDB10InitializeERKSt6vectorImSaImEERKS1_IPNS_18ColumnFamilyHandleESaIS7_EEEN32CommitSubBatchPreReleaseCallback8CallbackEmbmmm(ptr dead_on_unwind noalias writable writeonly sret(%"class.rocksdb::Status") align 8 captures(none) initializes((0, 6), (8, 16)) %0, ptr noundef nonnull readonly align 8 captures(none) dereferenceable(16) %1, i64 noundef %2, i1 zeroext %3, i64 %4, i64 %5, i64 %6) unnamed_addr #4 align 2 personality ptr @__gxx_personality_v0 {
  %8 = getelementptr inbounds nuw i8, ptr %1, i64 8
  %9 = load ptr, ptr %8, align 8, !tbaa !229
  tail call void @_ZN7rocksdb18WritePreparedTxnDB12AddCommittedEmmh(ptr noundef nonnull align 8 dereferenceable(1392) %9, i64 noundef %2, i64 noundef %2, i8 noundef zeroext 0)
  %10 = getelementptr inbounds nuw i8, ptr %0, i64 8
  store ptr null, ptr %10, align 8, !tbaa !225, !alias.scope !575
  tail call void @llvm.memset.p0.i64(ptr noundef nonnull align 8 dereferenceable(16) %0, i8 0, i64 6, i1 false), !alias.scope !575
  ret void
}